; Function Attrs: nofree norecurse nosync nounwind memory(read, inaccessiblemem: none) uwtable
define range(i32 0, 2) i32 @Ssw_RarManObjIsConst(ptr noundef readonly captures(none) %0, ptr noundef readonly captures(none) %1) #8 {
  %3 = getelementptr i8, ptr %1, i64 36
  %.val = load i32, ptr %3, align 4, !tbaa !39
  %.val11 = load ptr, ptr %0, align 8, !tbaa !33
  %4 = getelementptr i8, ptr %0, i64 40
  %.val12 = load ptr, ptr %4, align 8, !tbaa !34
  %5 = getelementptr i8, ptr %.val11, i64 4
  %.val11.val = load i32, ptr %5, align 4, !tbaa !10
  %6 = mul nsw i32 %.val11.val, %.val
  %7 = sext i32 %6 to i64
  %8 = getelementptr inbounds i64, ptr %.val12, i64 %7
  %9 = getelementptr inbounds nuw i8, ptr %1, i64 24
  %10 = load i64, ptr %9, align 8
  %11 = shl i64 %10, 60
  %sext = ashr i64 %11, 63
  %12 = icmp sgt i32 %.val11.val, 0
  br i1 %12, label %.lr.ph.preheader, label %._crit_edge

.lr.ph.preheader:                                 ; preds = %2
  %wide.trip.count = zext nneg i32 %.val11.val to i64
  br label %.lr.ph

13:                                               ; preds = %.lr.ph
  %indvars.iv.next = add nuw nsw i64 %indvars.iv, 1
  %exitcond.not = icmp eq i64 %indvars.iv.next, %wide.trip.count
  br i1 %exitcond.not, label %._crit_edge, label %.lr.ph, !llvm.loop !88

.lr.ph:                                           ; preds = %.lr.ph.preheader, %13
  %indvars.iv = phi i64 [ 0, %.lr.ph.preheader ], [ %indvars.iv.next, %13 ]
  %14 = getelementptr inbounds nuw i64, ptr %8, i64 %indvars.iv
  %15 = load i64, ptr %14, align 8, !tbaa !40
  %.not = icmp eq i64 %15, %sext
  br i1 %.not, label %13, label %._crit_edge

._crit_edge:                                      ; preds = %.lr.ph, %13, %2
  %.010 = phi i32 [ 1, %2 ], [ 1, %13 ], [ 0, %.lr.ph ]
  ret i32 %.010
}